target datalayout = "e-m:e-p270:32:32-p271:32:32-p272:64:64-i64:64-i128:128-f80:128-n8:16:32:64-S128"
target triple = "x86_64-pc-linux-gnu"

%struct.AVFilterGraph = type { ptr, ptr, i32, ptr, i32, i32, ptr, ptr, ptr }
%struct.AVFilterContext = type { ptr, ptr, ptr, ptr, ptr, i32, ptr, ptr, i32, ptr, ptr, i32, i32, ptr, ptr, ptr, ptr, i32, ptr, i32, i32 }
%struct.AVFilter = type { ptr, ptr, ptr, ptr, ptr, i32 }

@.str.1 = private unnamed_addr constant [4 x i8] c"all\00", align 1

; Function Attrs: nounwind uwtable
define i32 @avfilter_graph_send_command(ptr noundef %0, ptr noundef %1, ptr noundef %2, ptr noundef %3, ptr noundef %4, i32 noundef %5, i32 noundef %6) #0 {
  %8 = alloca i32, align 4
  %9 = alloca ptr, align 8
  %10 = alloca ptr, align 8
  %11 = alloca ptr, align 8
  %12 = alloca ptr, align 8
  %13 = alloca ptr, align 8
  %14 = alloca i32, align 4
  %15 = alloca i32, align 4
  %16 = alloca i32, align 4
  %17 = alloca i32, align 4
  %18 = alloca i32, align 4
  %19 = alloca ptr, align 8
  store ptr %0, ptr %9, align 8, !tbaa !9
  store ptr %1, ptr %10, align 8, !tbaa !53
  store ptr %2, ptr %11, align 8, !tbaa !53
  store ptr %3, ptr %12, align 8, !tbaa !53
  store ptr %4, ptr %13, align 8, !tbaa !53
  store i32 %5, ptr %14, align 4, !tbaa !20
  store i32 %6, ptr %15, align 4, !tbaa !20
  call void @llvm.lifetime.start.p0(i64 4, ptr %16) #11
  call void @llvm.lifetime.start.p0(i64 4, ptr %17) #11
  store i32 -38, ptr %17, align 4, !tbaa !20
  %20 = load ptr, ptr %9, align 8, !tbaa !9
  %21 = icmp ne ptr %20, null
  br i1 %21, label %24, label %22

22:                                               ; preds = %7
  %23 = load i32, ptr %17, align 4, !tbaa !20
  store i32 %23, ptr %8, align 4
  store i32 1, ptr %18, align 4
  br label %125

24:                                               ; preds = %7
  %25 = load i32, ptr %15, align 4, !tbaa !20
  %26 = and i32 %25, 1
  %27 = icmp ne i32 %26, 0
  br i1 %27, label %28, label %47

28:                                               ; preds = %24
  %29 = load i32, ptr %15, align 4, !tbaa !20
  %30 = and i32 %29, 2
  %31 = icmp ne i32 %30, 0
  br i1 %31, label %47, label %32

32:                                               ; preds = %28
  %33 = load ptr, ptr %9, align 8, !tbaa !9
  %34 = load ptr, ptr %10, align 8, !tbaa !53
  %35 = load ptr, ptr %11, align 8, !tbaa !53
  %36 = load ptr, ptr %12, align 8, !tbaa !53
  %37 = load ptr, ptr %13, align 8, !tbaa !53
  %38 = load i32, ptr %14, align 4, !tbaa !20
  %39 = load i32, ptr %15, align 4, !tbaa !20
  %40 = or i32 %39, 2
  %41 = call i32 @avfilter_graph_send_command(ptr noundef %33, ptr noundef %34, ptr noundef %35, ptr noundef %36, ptr noundef %37, i32 noundef %38, i32 noundef %40)
  store i32 %41, ptr %17, align 4, !tbaa !20
  %42 = load i32, ptr %17, align 4, !tbaa !20
  %43 = icmp ne i32 %42, -38
  br i1 %43, label %44, label %46

44:                                               ; preds = %32
  %45 = load i32, ptr %17, align 4, !tbaa !20
  store i32 %45, ptr %8, align 4
  store i32 1, ptr %18, align 4
  br label %125

46:                                               ; preds = %32
  br label %47

47:                                               ; preds = %46, %28, %24
  %48 = load i32, ptr %14, align 4, !tbaa !20
  %49 = icmp ne i32 %48, 0
  br i1 %49, label %50, label %56

50:                                               ; preds = %47
  %51 = load ptr, ptr %13, align 8, !tbaa !53
  %52 = icmp ne ptr %51, null
  br i1 %52, label %53, label %56

53:                                               ; preds = %50
  %54 = load ptr, ptr %13, align 8, !tbaa !53
  %55 = getelementptr inbounds i8, ptr %54, i64 0
  store i8 0, ptr %55, align 1, !tbaa !111
  br label %56

56:                                               ; preds = %53, %50, %47
  store i32 0, ptr %16, align 4, !tbaa !20
  br label %57

57:                                               ; preds = %120, %56
  %58 = load i32, ptr %16, align 4, !tbaa !20
  %59 = load ptr, ptr %9, align 8, !tbaa !9
  %60 = getelementptr inbounds nuw %struct.AVFilterGraph, ptr %59, i32 0, i32 2
  %61 = load i32, ptr %60, align 8, !tbaa !21
  %62 = icmp ult i32 %58, %61
  br i1 %62, label %63, label %123

63:                                               ; preds = %57
  call void @llvm.lifetime.start.p0(i64 8, ptr %19) #11
  %64 = load ptr, ptr %9, align 8, !tbaa !9
  %65 = getelementptr inbounds nuw %struct.AVFilterGraph, ptr %64, i32 0, i32 1
  %66 = load ptr, ptr %65, align 8, !tbaa !22
  %67 = load i32, ptr %16, align 4, !tbaa !20
  %68 = sext i32 %67 to i64
  %69 = getelementptr inbounds ptr, ptr %66, i64 %68
  %70 = load ptr, ptr %69, align 8, !tbaa !18
  store ptr %70, ptr %19, align 8, !tbaa !18
  %71 = load ptr, ptr %10, align 8, !tbaa !53
  %72 = call i32 @strcmp(ptr noundef %71, ptr noundef @.str.1) #12
  %73 = icmp ne i32 %72, 0
  br i1 %73, label %74, label %95

74:                                               ; preds = %63
  %75 = load ptr, ptr %19, align 8, !tbaa !18
  %76 = getelementptr inbounds nuw %struct.AVFilterContext, ptr %75, i32 0, i32 2
  %77 = load ptr, ptr %76, align 8, !tbaa !63
  %78 = icmp ne ptr %77, null
  br i1 %78, label %79, label %86

79:                                               ; preds = %74
  %80 = load ptr, ptr %10, align 8, !tbaa !53
  %81 = load ptr, ptr %19, align 8, !tbaa !18
  %82 = getelementptr inbounds nuw %struct.AVFilterContext, ptr %81, i32 0, i32 2
  %83 = load ptr, ptr %82, align 8, !tbaa !63
  %84 = call i32 @strcmp(ptr noundef %80, ptr noundef %83) #12
  %85 = icmp ne i32 %84, 0
  br i1 %85, label %86, label %95

86:                                               ; preds = %79, %74
  %87 = load ptr, ptr %10, align 8, !tbaa !53
  %88 = load ptr, ptr %19, align 8, !tbaa !18
  %89 = getelementptr inbounds nuw %struct.AVFilterContext, ptr %88, i32 0, i32 1
  %90 = load ptr, ptr %89, align 8, !tbaa !78
  %91 = getelementptr inbounds nuw %struct.AVFilter, ptr %90, i32 0, i32 0
  %92 = load ptr, ptr %91, align 8, !tbaa !79
  %93 = call i32 @strcmp(ptr noundef %87, ptr noundef %92) #12
  %94 = icmp ne i32 %93, 0
  br i1 %94, label %116, label %95

95:                                               ; preds = %86, %79, %63
  %96 = load ptr, ptr %19, align 8, !tbaa !18
  %97 = load ptr, ptr %11, align 8, !tbaa !53
  %98 = load ptr, ptr %12, align 8, !tbaa !53
  %99 = load ptr, ptr %13, align 8, !tbaa !53
  %100 = load i32, ptr %14, align 4, !tbaa !20
  %101 = load i32, ptr %15, align 4, !tbaa !20
  %102 = call i32 @avfilter_process_command(ptr noundef %96, ptr noundef %97, ptr noundef %98, ptr noundef %99, i32 noundef %100, i32 noundef %101)
  store i32 %102, ptr %17, align 4, !tbaa !20
  %103 = load i32, ptr %17, align 4, !tbaa !20
  %104 = icmp ne i32 %103, -38
  br i1 %104, label %105, label %115

105:                                              ; preds = %95
  %106 = load i32, ptr %15, align 4, !tbaa !20
  %107 = and i32 %106, 1
  %108 = icmp ne i32 %107, 0
  br i1 %108, label %112, label %109

109:                                              ; preds = %105
  %110 = load i32, ptr %17, align 4, !tbaa !20
  %111 = icmp slt i32 %110, 0
  br i1 %111, label %112, label %114

112:                                              ; preds = %109, %105
  %113 = load i32, ptr %17, align 4, !tbaa !20
  store i32 %113, ptr %8, align 4
  store i32 1, ptr %18, align 4
  br label %117

114:                                              ; preds = %109
  br label %115

115:                                              ; preds = %114, %95
  br label %116

116:                                              ; preds = %115, %86
  store i32 0, ptr %18, align 4
  br label %117

117:                                              ; preds = %116, %112
  call void @llvm.lifetime.end.p0(i64 8, ptr %19) #11
  %118 = load i32, ptr %18, align 4
  switch i32 %118, label %125 [
    i32 0, label %119
  ]

119:                                              ; preds = %117
  br label %120

120:                                              ; preds = %119
  %121 = load i32, ptr %16, align 4, !tbaa !20
  %122 = add nsw i32 %121, 1
  store i32 %122, ptr %16, align 4, !tbaa !20
  br label %57, !llvm.loop !112

123:                                              ; preds = %57
  %124 = load i32, ptr %17, align 4, !tbaa !20
  store i32 %124, ptr %8, align 4
  store i32 1, ptr %18, align 4
  br label %125

125:                                              ; preds = %123, %117, %44, %22
  call void @llvm.lifetime.end.p0(i64 4, ptr %17) #11
  call void @llvm.lifetime.end.p0(i64 4, ptr %16) #11
  %126 = load i32, ptr %8, align 4
  ret i32 %126
}