; Function Attrs: nounwind uwtable
define i32 @avfilter_graph_send_command(ptr noundef readonly captures(address_is_null) %0, ptr noundef readonly captures(none) %1, ptr noundef %2, ptr noundef %3, ptr noundef %4, i32 noundef %5, i32 noundef %6) local_unnamed_addr #0 {
  %.not = icmp eq ptr %0, null
  br i1 %.not, label %.loopexit, label %8

8:                                                ; preds = %7
  %9 = and i32 %6, 1
  %10 = icmp eq i32 %9, 0
  %11 = and i32 %6, 3
  %or.cond61 = icmp eq i32 %11, 1
  br i1 %or.cond61, label %12, label %15

12:                                               ; preds = %8
  %13 = or disjoint i32 %6, 2
  %14 = tail call i32 @avfilter_graph_send_command(ptr noundef nonnull %0, ptr noundef %1, ptr noundef %2, ptr noundef %3, ptr noundef %4, i32 noundef %5, i32 noundef %13)
  %.not55 = icmp eq i32 %14, -38
  br i1 %.not55, label %15, label %.loopexit

15:                                               ; preds = %12, %8
  %16 = icmp ne i32 %5, 0
  %17 = icmp ne ptr %4, null
  %or.cond = and i1 %17, %16
  br i1 %or.cond, label %18, label %19

18:                                               ; preds = %15
  store i8 0, ptr %4, align 1, !tbaa !155
  br label %19

19:                                               ; preds = %18, %15
  %20 = getelementptr inbounds nuw i8, ptr %0, i64 16
  %21 = load i32, ptr %20, align 8, !tbaa !14
  %.not76 = icmp eq i32 %21, 0
  br i1 %.not76, label %.loopexit, label %.lr.ph

.lr.ph:                                           ; preds = %19
  %22 = getelementptr inbounds nuw i8, ptr %0, i64 8
  br i1 %10, label %.lr.ph.split, label %.lr.ph.split.us

.lr.ph.split.us:                                  ; preds = %.lr.ph, %.thread.us
  %23 = phi i32 [ %40, %.thread.us ], [ %21, %.lr.ph ]
  %indvars.iv = phi i64 [ %indvars.iv.next, %.thread.us ], [ 0, %.lr.ph ]
  %24 = load ptr, ptr %22, align 8, !tbaa !15
  %25 = getelementptr inbounds nuw ptr, ptr %24, i64 %indvars.iv
  %26 = load ptr, ptr %25, align 8, !tbaa !18
  %27 = tail call i32 @strcmp(ptr noundef nonnull dereferenceable(1) %1, ptr noundef nonnull dereferenceable(4) @.str.1) #15
  %.not56.us = icmp eq i32 %27, 0
  br i1 %.not56.us, label %38, label %28

28:                                               ; preds = %.lr.ph.split.us
  %29 = getelementptr inbounds nuw i8, ptr %26, i64 16
  %30 = load ptr, ptr %29, align 8, !tbaa !53
  %.not57.us = icmp eq ptr %30, null
  br i1 %.not57.us, label %33, label %31

31:                                               ; preds = %28
  %32 = tail call i32 @strcmp(ptr noundef nonnull dereferenceable(1) %1, ptr noundef nonnull dereferenceable(1) %30) #15
  %.not58.us = icmp eq i32 %32, 0
  br i1 %.not58.us, label %38, label %33

33:                                               ; preds = %31, %28
  %34 = getelementptr inbounds nuw i8, ptr %26, i64 8
  %35 = load ptr, ptr %34, align 8, !tbaa !66
  %36 = load ptr, ptr %35, align 8, !tbaa !67
  %37 = tail call i32 @strcmp(ptr noundef nonnull dereferenceable(1) %1, ptr noundef nonnull dereferenceable(1) %36) #15
  %.not59.us = icmp eq i32 %37, 0
  br i1 %.not59.us, label %38, label %.thread.us

38:                                               ; preds = %33, %31, %.lr.ph.split.us
  %39 = tail call i32 @avfilter_process_command(ptr noundef %26, ptr noundef %2, ptr noundef %3, ptr noundef %4, i32 noundef %5, i32 noundef %6) #14
  %.not60.us = icmp eq i32 %39, -38
  br i1 %.not60.us, label %..thread.us_crit_edge, label %.loopexit

..thread.us_crit_edge:                            ; preds = %38
  %.pre = load i32, ptr %20, align 8, !tbaa !14
  br label %.thread.us

.thread.us:                                       ; preds = %..thread.us_crit_edge, %33
  %40 = phi i32 [ %.pre, %..thread.us_crit_edge ], [ %23, %33 ]
  %indvars.iv.next = add nuw nsw i64 %indvars.iv, 1
  %41 = zext i32 %40 to i64
  %42 = icmp samesign ult i64 %indvars.iv.next, %41
  br i1 %42, label %.lr.ph.split.us, label %.loopexit, !llvm.loop !189

.lr.ph.split:                                     ; preds = %.lr.ph, %.thread
  %indvars.iv80 = phi i64 [ %indvars.iv.next81, %.thread ], [ 0, %.lr.ph ]
  %.14471 = phi i32 [ %.366, %.thread ], [ -38, %.lr.ph ]
  %43 = load ptr, ptr %22, align 8, !tbaa !15
  %44 = getelementptr inbounds nuw ptr, ptr %43, i64 %indvars.iv80
  %45 = load ptr, ptr %44, align 8, !tbaa !18
  %46 = tail call i32 @strcmp(ptr noundef nonnull dereferenceable(1) %1, ptr noundef nonnull dereferenceable(4) @.str.1) #15
  %.not56 = icmp eq i32 %46, 0
  br i1 %.not56, label %57, label %47

47:                                               ; preds = %.lr.ph.split
  %48 = getelementptr inbounds nuw i8, ptr %45, i64 16
  %49 = load ptr, ptr %48, align 8, !tbaa !53
  %.not57 = icmp eq ptr %49, null
  br i1 %.not57, label %52, label %50

50:                                               ; preds = %47
  %51 = tail call i32 @strcmp(ptr noundef nonnull dereferenceable(1) %1, ptr noundef nonnull dereferenceable(1) %49) #15
  %.not58 = icmp eq i32 %51, 0
  br i1 %.not58, label %57, label %52

52:                                               ; preds = %50, %47
  %53 = getelementptr inbounds nuw i8, ptr %45, i64 8
  %54 = load ptr, ptr %53, align 8, !tbaa !66
  %55 = load ptr, ptr %54, align 8, !tbaa !67
  %56 = tail call i32 @strcmp(ptr noundef nonnull dereferenceable(1) %1, ptr noundef nonnull dereferenceable(1) %55) #15
  %.not59 = icmp eq i32 %56, 0
  br i1 %.not59, label %57, label %.thread

57:                                               ; preds = %52, %50, %.lr.ph.split
  %58 = tail call i32 @avfilter_process_command(ptr noundef %45, ptr noundef %2, ptr noundef %3, ptr noundef %4, i32 noundef %5, i32 noundef %6) #14
  %.not60 = icmp eq i32 %58, -38
  br i1 %.not60, label %.thread, label %59

59:                                               ; preds = %57
  %60 = icmp sgt i32 %58, -1
  br i1 %60, label %.thread, label %.loopexit

.thread:                                          ; preds = %52, %57, %59
  %.366 = phi i32 [ %58, %59 ], [ -38, %57 ], [ %.14471, %52 ]
  %indvars.iv.next81 = add nuw nsw i64 %indvars.iv80, 1
  %61 = load i32, ptr %20, align 8, !tbaa !14
  %62 = zext i32 %61 to i64
  %63 = icmp samesign ult i64 %indvars.iv.next81, %62
  br i1 %63, label %.lr.ph.split, label %.loopexit, !llvm.loop !189

.loopexit:                                        ; preds = %38, %.thread.us, %59, %.thread, %19, %12, %7
  %.0 = phi i32 [ -38, %7 ], [ %14, %12 ], [ -38, %19 ], [ %58, %59 ], [ %.366, %.thread ], [ %39, %38 ], [ -38, %.thread.us ]
  ret i32 %.0
}